; Function Attrs: nounwind uwtable
define ptr @l_Lean_Expr_arrayLit_x3f___boxed(ptr noundef %0) local_unnamed_addr #0 {
  %2 = load ptr, ptr @l_Lean_Expr_arrayLit_x3f___closed__2, align 8, !tbaa !4
  %3 = tail call zeroext i8 @l_Lean_Expr_isAppOfArity_x27(ptr noundef %0, ptr noundef %2, ptr noundef nonnull inttoptr (i64 5 to ptr)) #4
  %4 = icmp eq i8 %3, 0
  br i1 %4, label %l_Lean_Expr_arrayLit_x3f.exit, label %5

5:                                                ; preds = %1
  %6 = tail call ptr @l_Lean_Expr_appArg_x21_x27(ptr noundef %0) #4
  %7 = tail call ptr @l_Lean_Expr_listLit_x3f_loop(ptr noundef %6, ptr noundef nonnull inttoptr (i64 1 to ptr))
  br label %l_Lean_Expr_arrayLit_x3f.exit

l_Lean_Expr_arrayLit_x3f.exit:                    ; preds = %1, %5
  %.0.i = phi ptr [ %7, %5 ], [ inttoptr (i64 1 to ptr), %1 ]
  %8 = ptrtoint ptr %0 to i64
  %9 = and i64 %8, 1
  %.not = icmp eq i64 %9, 0
  br i1 %.not, label %10, label %lean_dec.exit

10:                                               ; preds = %l_Lean_Expr_arrayLit_x3f.exit
  %11 = load i32, ptr %0, align 4, !tbaa !8
  %12 = icmp sgt i32 %11, 1
  br i1 %12, label %13, label %15, !prof !11

13:                                               ; preds = %10
  %14 = add nsw i32 %11, -1
  store i32 %14, ptr %0, align 4, !tbaa !8
  br label %lean_dec.exit

15:                                               ; preds = %10
  %.not.i = icmp eq i32 %11, 0
  br i1 %.not.i, label %lean_dec.exit, label %16

16:                                               ; preds = %15
  tail call void @lean_dec_ref_cold(ptr noundef nonnull %0) #4
  br label %lean_dec.exit

lean_dec.exit:                                    ; preds = %16, %15, %13, %l_Lean_Expr_arrayLit_x3f.exit
  ret ptr %.0.i
}